target datalayout = "e-m:e-p270:32:32-p271:32:32-p272:64:64-i64:64-i128:128-f80:128-n8:16:32:64-S128"
target triple = "x86_64-pc-linux-gnu"

%struct._php_random_algo = type { i64, ptr, ptr, ptr, ptr }
%struct._zend_random_globals = type { ptr, i8, ptr, i8, i32 }
%struct._php_random_result = type { i64, i64 }
%struct._php_random_status_state_mt19937 = type { [624 x i32], i32, i8 }

@php_random_algo_mt19937 = external constant %struct._php_random_algo, align 8
@random_globals = global %struct._zend_random_globals zeroinitializer, align 8

; Function Attrs: nounwind uwtable
define i64 @php_mt_rand_range(i64 noundef %0, i64 noundef %1) #0 {
  %3 = alloca i64, align 8
  %4 = alloca i64, align 8
  store i64 %0, ptr %3, align 8
  store i64 %1, ptr %4, align 8
  %5 = load ptr, ptr getelementptr inbounds (%struct._php_random_algo, ptr @php_random_algo_mt19937, i32 0, i32 2), align 8
  %6 = call ptr @php_random_default_status()
  %7 = load i64, ptr %3, align 8
  %8 = load i64, ptr %4, align 8
  %9 = call i64 %5(ptr noundef %6, i64 noundef %7, i64 noundef %8)
  ret i64 %9
}

; Function Attrs: nounwind uwtable
define ptr @php_random_default_status() #0 {
  %1 = alloca ptr, align 8
  %2 = load ptr, ptr getelementptr inbounds (%struct._zend_random_globals, ptr @random_globals, i32 0, i32 2), align 8
  store ptr %2, ptr %1, align 8
  %3 = load i8, ptr getelementptr inbounds (%struct._zend_random_globals, ptr @random_globals, i32 0, i32 3), align 8
  %4 = trunc i8 %3 to i1
  br i1 %4, label %7, label %5

5:                                                ; preds = %0
  %6 = load ptr, ptr %1, align 8
  call void @php_random_mt19937_seed_default(ptr noundef %6)
  store i8 1, ptr getelementptr inbounds (%struct._zend_random_globals, ptr @random_globals, i32 0, i32 3), align 8
  br label %7

7:                                                ; preds = %5, %0
  %8 = load ptr, ptr %1, align 8
  ret ptr %8
}

; Function Attrs: nounwind uwtable
define i64 @php_mt_rand_common(i64 noundef %0, i64 noundef %1) #0 {
  %3 = alloca i64, align 8
  %4 = alloca i64, align 8
  %5 = alloca i64, align 8
  %6 = alloca ptr, align 8
  %7 = alloca i64, align 8
  %8 = alloca %struct._php_random_result, align 8
  %9 = alloca i64, align 8
  store i64 %0, ptr %4, align 8
  store i64 %1, ptr %5, align 8
  %10 = call ptr @php_random_default_status()
  store ptr %10, ptr %6, align 8
  %11 = load ptr, ptr %6, align 8
  %12 = getelementptr inbounds %struct._php_random_status_state_mt19937, ptr %11, i32 0, i32 2
  %13 = load i8, ptr %12, align 4
  %14 = zext i8 %13 to i32
  %15 = icmp eq i32 %14, 0
  br i1 %15, label %16, label %20

16:                                               ; preds = %2
  %17 = load i64, ptr %4, align 8
  %18 = load i64, ptr %5, align 8
  %19 = call i64 @php_mt_rand_range(i64 noundef %17, i64 noundef %18)
  store i64 %19, ptr %3, align 8
  br label %45

20:                                               ; preds = %2
  %21 = load ptr, ptr getelementptr inbounds (%struct._php_random_algo, ptr @php_random_algo_mt19937, i32 0, i32 1), align 8
  %22 = call ptr @php_random_default_status()
  %23 = call { i64, i64 } %21(ptr noundef %22)
  %24 = getelementptr inbounds { i64, i64 }, ptr %8, i32 0, i32 0
  %25 = extractvalue { i64, i64 } %23, 0
  store i64 %25, ptr %24, align 8
  %26 = getelementptr inbounds { i64, i64 }, ptr %8, i32 0, i32 1
  %27 = extractvalue { i64, i64 } %23, 1
  store i64 %27, ptr %26, align 8
  %28 = getelementptr inbounds %struct._php_random_result, ptr %8, i32 0, i32 0
  %29 = load i64, ptr %28, align 8
  %30 = lshr i64 %29, 1
  store i64 %30, ptr %7, align 8
  %31 = load i64, ptr %5, align 8
  %32 = sitofp i64 %31 to double
  %33 = load i64, ptr %4, align 8
  %34 = sitofp i64 %33 to double
  %35 = fsub double %32, %34
  %36 = fadd double %35, 1.000000e+00
  %37 = load i64, ptr %7, align 8
  %38 = uitofp i64 %37 to double
  %39 = fdiv double %38, 0x41E0000000000000
  %40 = fmul double %36, %39
  %41 = fptoui double %40 to i64
  store i64 %41, ptr %9, align 8
  %42 = load i64, ptr %9, align 8
  %43 = load i64, ptr %4, align 8
  %44 = add i64 %42, %43
  store i64 %44, ptr %3, align 8
  br label %45

45:                                               ; preds = %20, %16
  %46 = load i64, ptr %3, align 8
  ret i64 %46
}