; Function Attrs: nounwind uwtable
define i64 @php_mt_rand_common(i64 noundef %0, i64 noundef %1) local_unnamed_addr #0 {
  %3 = load ptr, ptr getelementptr inbounds (%struct._zend_random_globals, ptr @random_globals, i64 0, i32 2), align 8
  %4 = load i8, ptr getelementptr inbounds (%struct._zend_random_globals, ptr @random_globals, i64 0, i32 3), align 8
  %5 = and i8 %4, 1
  %.not.i = icmp eq i8 %5, 0
  br i1 %.not.i, label %6, label %php_random_default_status.exit

6:                                                ; preds = %2
  tail call void @php_random_mt19937_seed_default(ptr noundef %3) #13
  store i8 1, ptr getelementptr inbounds (%struct._zend_random_globals, ptr @random_globals, i64 0, i32 3), align 8
  br label %php_random_default_status.exit

php_random_default_status.exit:                   ; preds = %2, %6
  %7 = phi i8 [ %4, %2 ], [ 1, %6 ]
  %8 = getelementptr inbounds i8, ptr %3, i64 2500
  %9 = load i8, ptr %8, align 4
  %10 = icmp eq i8 %9, 0
  %11 = load ptr, ptr getelementptr inbounds (%struct._zend_random_globals, ptr @random_globals, i64 0, i32 2), align 8
  %12 = and i8 %7, 1
  %.not.i.i = icmp eq i8 %12, 0
  br i1 %10, label %13, label %17

13:                                               ; preds = %php_random_default_status.exit
  %14 = load ptr, ptr getelementptr inbounds (%struct._php_random_algo, ptr @php_random_algo_mt19937, i64 0, i32 2), align 8
  br i1 %.not.i.i, label %15, label %php_mt_rand_range.exit

15:                                               ; preds = %13
  tail call void @php_random_mt19937_seed_default(ptr noundef %11) #13
  store i8 1, ptr getelementptr inbounds (%struct._zend_random_globals, ptr @random_globals, i64 0, i32 3), align 8
  br label %php_mt_rand_range.exit

php_mt_rand_range.exit:                           ; preds = %13, %15
  %16 = tail call i64 %14(ptr noundef %11, i64 noundef %0, i64 noundef %1) #13
  br label %32

17:                                               ; preds = %php_random_default_status.exit
  %18 = load ptr, ptr getelementptr inbounds (%struct._php_random_algo, ptr @php_random_algo_mt19937, i64 0, i32 1), align 8
  br i1 %.not.i.i, label %19, label %php_random_default_status.exit9

19:                                               ; preds = %17
  tail call void @php_random_mt19937_seed_default(ptr noundef %11) #13
  store i8 1, ptr getelementptr inbounds (%struct._zend_random_globals, ptr @random_globals, i64 0, i32 3), align 8
  br label %php_random_default_status.exit9

php_random_default_status.exit9:                  ; preds = %17, %19
  %20 = tail call { i64, i64 } %18(ptr noundef %11) #13
  %21 = extractvalue { i64, i64 } %20, 0
  %22 = lshr i64 %21, 1
  %23 = sitofp i64 %1 to double
  %24 = sitofp i64 %0 to double
  %25 = fsub double %23, %24
  %26 = fadd double %25, 1.000000e+00
  %27 = uitofp i64 %22 to double
  %28 = fmul double %27, 0x3E00000000000000
  %29 = fmul double %26, %28
  %30 = fptoui double %29 to i64
  %31 = add i64 %30, %0
  br label %32

32:                                               ; preds = %php_random_default_status.exit9, %php_mt_rand_range.exit
  %.0 = phi i64 [ %16, %php_mt_rand_range.exit ], [ %31, %php_random_default_status.exit9 ]
  ret i64 %.0
}